(dp0
S'Canada'
p1
ccopy_reg
_reconstructor
p2
(cjoin_hdi
Statistics
p3
c__builtin__
object
p4
Ntp5
Rp6
(dp7
S'gdp'
p8
F1501.3
sS'life'
p9
F81.0
sS'school'
p10
F11.5
sS'gdpc'
p11
F45070.0
sS'country_name'
p12
g1
sS'hdi'
p13
F0.888
sS'population'
p14
F33.9
sbsS'Libyan Arab Jamahiriya'
p15
g2
(g3
g4
Ntp16
Rp17
(dp18
g8
F93.2
sg9
F74.5
sg10
F7.3
sg11
F14802.0
sg12
g15
sg13
F0.755
sg14
F6.5
sbsS'Sao Tome and Principe'
p19
g2
(g3
g4
Ntp20
Rp21
(dp22
g8
F0.2
sg9
F66.1
sg10
F4.2
sg11
F1090.0
sg12
g19
sg13
F0.488
sg14
F0.2
sbsS'Turkmenistan'
p23
g2
(g3
g4
Ntp24
Rp25
(dp26
g8
F15.3
sg9
F65.3
sg10
F9.9
sg11
F3039.0
sg12
g23
sg13
F0.669
sg14
F5.2
sbsS'Moldova (Republic of)'
p27
g2
(g3
g4
Ntp28
Rp29
(dp30
g8
F6.0
sg9
F68.9
sg10
F9.7
sg11
F1694.0
sg12
g27
sg13
F0.623
sg14
F3.6
sbsS'Lithuania'
p31
g2
(g3
g4
Ntp32
Rp33
(dp34
g8
F47.3
sg9
F72.1
sg10
F10.9
sg11
F14098.0
sg12
g31
sg13
F0.783
sg14
F3.3
sbsS'Bahamas'
p35
g2
(g3
g4
Ntp36
Rp37
(dp38
g12
g35
sg9
F74.4
sg10
F11.1
sg13
F0.784
sg14
F0.3
sbsS'Ethiopia'
p39
g2
(g3
g4
Ntp40
Rp41
(dp42
g8
F25.6
sg9
F56.1
sg10
F1.5
sg11
F317.0
sg12
g39
sg13
F0.328
sg14
F85.0
sbsS'Hong Kong, China (SAR)'
p43
g2
(g3
g4
Ntp44
Rp45
(dp46
g8
F215.4
sg9
F82.5
sg10
F10.0
sg11
F30863.0
sg12
g43
sg13
F0.862
sg14
F7.1
sbsS'Swaziland'
p47
g2
(g3
g4
Ntp48
Rp49
(dp50
g8
F2.8
sg9
F47.0
sg10
F7.1
sg11
F2429.0
sg12
g47
sg13
F0.498
sg14
F1.2
sbsS'Argentina'
p51
g2
(g3
g4
Ntp52
Rp53
(dp54
g8
F328.5
sg9
F75.7
sg10
F9.3
sg11
F8236.0
sg12
g51
sg13
F0.775
sg14
F40.7
sbsS'Cameroon'
p55
g2
(g3
g4
Ntp56
Rp57
(dp58
g8
F23.4
sg9
F51.7
sg10
F5.9
sg11
F1226.0
sg12
g55
sg13
F0.46
sg14
F20.0
sbsS'Burkina Faso'
p59
g2
(g3
g4
Ntp60
Rp61
(dp62
g8
F7.9
sg9
F53.7
sg10
F1.3
sg11
F522.0
sg12
g59
sg13
F0.305
sg14
F16.3
sbsS'Bahrain'
p63
g2
(g3
g4
Ntp64
Rp65
(dp66
g8
F21.9
sg9
F76.0
sg10
F9.4
sg11
F28240.0
sg12
g63
sg13
F0.801
sg14
F0.8
sbsS'Saudi Arabia'
p67
g2
(g3
g4
Ntp68
Rp69
(dp70
g8
F468.8
sg9
F73.3
sg10
F7.8
sg11
F19022.0
sg12
g67
sg13
F0.752
sg14
F26.2
sbsS'Cape Verde'
p71
g2
(g3
g4
Ntp72
Rp73
(dp74
g8
F1.6
sg9
F71.9
sg10
F3.5
sg11
F3193.0
sg12
g71
sg13
F0.534
sg14
F0.5
sbsS'Slovenia'
p75
g2
(g3
g4
Ntp76
Rp77
(dp78
g8
F54.6
sg9
F78.8
sg10
F9.0
sg11
F27019.0
sg12
g75
sg13
F0.828
sg14
F2.0
sbsS'Guatemala'
p79
g2
(g3
g4
Ntp80
Rp81
(dp82
g8
F39.0
sg9
F70.8
sg10
F4.1
sg11
F2848.0
sg12
g79
sg13
F0.56
sg14
F14.4
sbsS'Bosnia and Herzegovina'
p83
g2
(g3
g4
Ntp84
Rp85
(dp86
g8
F18.5
sg9
F75.5
sg10
F8.7
sg11
F4906.0
sg12
g83
sg13
F0.71
sg14
F3.8
sbsS'Guinea'
p87
g2
(g3
g4
Ntp88
Rp89
(dp90
g8
F3.8
sg9
F58.9
sg10
F1.6
sg11
F386.0
sg12
g87
sg13
F0.34
sg14
F10.3
sbsS'Russian Federation'
p91
g2
(g3
g4
Ntp92
Rp93
(dp94
g8
F1679.5
sg9
F67.2
sg10
F8.8
sg11
F11832.0
sg12
g91
sg13
F0.719
sg14
F140.4
sbsS'Jordan'
p95
g2
(g3
g4
Ntp96
Rp97
(dp98
g8
F21.2
sg9
F73.1
sg10
F8.6
sg11
F3596.0
sg12
g95
sg13
F0.681
sg14
F6.5
sbsS'Spain'
p99
g2
(g3
g4
Ntp100
Rp101
(dp102
g8
F1604.2
sg9
F81.3
sg10
F10.4
sg11
F35215.0
sg12
g99
sg13
F0.863
sg14
F45.3
sbsS'Liberia'
p103
g2
(g3
g4
Ntp104
Rp105
(dp106
g8
F0.8
sg9
F59.1
sg10
F3.9
sg11
F222.0
sg12
g103
sg13
F0.3
sg14
F4.1
sbsS'Netherlands'
p107
g2
(g3
g4
Ntp108
Rp109
(dp110
g8
F871.0
sg9
F80.3
sg10
F11.2
sg11
F52963.0
sg12
g107
sg13
F0.89
sg14
F16.7
sbsS'Paraguay'
p111
g2
(g3
g4
Ntp112
Rp113
(dp114
g8
F16.0
sg9
F72.3
sg10
F7.8
sg11
F2561.0
sg12
g111
sg13
F0.64
sg14
F6.5
sbsS'Pakistan'
p115
g2
(g3
g4
Ntp116
Rp117
(dp118
g8
F164.5
sg9
F67.2
sg10
F4.9
sg11
F991.0
sg12
g115
sg13
F0.49
sg14
F184.8
sbsS'Gabon'
p119
g2
(g3
g4
Ntp120
Rp121
(dp122
g8
F14.5
sg9
F61.3
sg10
F7.5
sg11
F10037.0
sg12
g119
sg13
F0.648
sg14
F1.5
sbsS'Cambodia'
p123
g2
(g3
g4
Ntp124
Rp125
(dp126
g8
F10.4
sg9
F62.2
sg10
F5.8
sg11
F711.0
sg12
g123
sg13
F0.494
sg14
F15.1
sbsS'New Zealand'
p127
g2
(g3
g4
Ntp128
Rp129
(dp130
g8
F129.9
sg9
F80.6
sg10
F12.5
sg11
F30439.0
sg12
g127
sg13
F0.907
sg14
F4.3
sbsS'Yemen'
p131
g2
(g3
g4
Ntp132
Rp133
(dp134
g8
F26.6
sg9
F63.9
sg10
F2.5
sg11
F1160.0
sg12
g131
sg13
F0.439
sg14
F24.3
sbsS'Jamaica'
p135
g2
(g3
g4
Ntp136
Rp137
(dp138
g8
F14.6
sg9
F72.3
sg10
F9.6
sg11
F5438.0
sg12
g135
sg13
F0.688
sg14
F2.7
sbsS'Albania'
p139
g2
(g3
g4
Ntp140
Rp141
(dp142
g8
F12.3
sg9
F76.9
sg10
F10.4
sg11
F3911.0
sg12
g139
sg13
F0.719
sg14
F3.2
sbsS'United Arab Emirates'
p143
g2
(g3
g4
Ntp144
Rp145
(dp146
g12
g143
sg9
F77.7
sg10
F9.2
sg13
F0.815
sg14
F4.7
sbsS"C\xc3\xb4te d'Ivoire"
p147
g2
(g3
g4
Ntp148
Rp149
(dp150
g8
F23.4
sg9
F58.4
sg10
F3.3
sg11
F1137.0
sg12
g147
sg13
F0.397
sg14
F21.6
sbsS'Viet Nam'
p151
g2
(g3
g4
Ntp152
Rp153
(dp154
g8
F90.6
sg9
F74.9
sg10
F5.5
sg11
F1051.0
sg12
g151
sg13
F0.572
sg14
F89.0
sbsS'Azerbaijan'
p155
g2
(g3
g4
Ntp156
Rp157
(dp158
g8
F46.1
sg9
F70.8
sg10
F10.2
sg11
F5315.0
sg12
g155
sg13
F0.713
sg14
F8.9
sbsS'Madagascar'
p159
g2
(g3
g4
Ntp160
Rp161
(dp162
g8
F9.5
sg9
F61.2
sg10
F5.2
sg11
F495.0
sg12
g159
sg13
F0.435
sg14
F20.1
sbsS'Lesotho'
p163
g2
(g3
g4
Ntp164
Rp165
(dp166
g8
F1.6
sg9
F45.9
sg10
F5.8
sg11
F791.0
sg12
g163
sg13
F0.427
sg14
F2.1
sbsS'Kenya'
p167
g2
(g3
g4
Ntp168
Rp169
(dp170
g8
F30.4
sg9
F55.6
sg10
F7.0
sg11
F783.0
sg12
g167
sg13
F0.47
sg14
F40.9
sbsS'Tajikistan'
p171
g2
(g3
g4
Ntp172
Rp173
(dp174
g8
F5.1
sg9
F67.3
sg10
F9.8
sg11
F751.0
sg12
g171
sg13
F0.58
sg14
F7.1
sbsS'Turkey'
p175
g2
(g3
g4
Ntp176
Rp177
(dp178
g8
F734.9
sg9
F72.2
sg10
F6.5
sg11
F9942.0
sg12
g175
sg13
F0.679
sg14
F75.7
sbsS'Afghanistan'
p179
g2
(g3
g4
Ntp180
Rp181
(dp182
g8
F10.6
sg9
F44.6
sg10
F3.3
sg11
F366.0
sg12
g179
sg13
F0.349
sg14
F29.1
sbsS'Czech Republic'
p183
g2
(g3
g4
Ntp184
Rp185
(dp186
g8
F215.5
sg9
F76.9
sg10
F12.3
sg11
F20673.0
sg12
g183
sg13
F0.841
sg14
F10.4
sbsS'Iran (Islamic Republic of)'
p187
g2
(g3
g4
Ntp188
Rp189
(dp190
g12
g187
sg9
F71.9
sg10
F7.2
sg13
F0.702
sg14
F75.1
sbsS'India'
p191
g2
(g3
g4
Ntp192
Rp193
(dp194
g8
F1159.2
sg9
F64.4
sg10
F4.4
sg11
F1017.0
sg12
g191
sg13
F0.519
sg14
F1214.5
sbsS'Mongolia'
p195
g2
(g3
g4
Ntp196
Rp197
(dp198
g8
F5.3
sg9
F67.3
sg10
F8.3
sg11
F1991.0
sg12
g195
sg13
F0.622
sg14
F2.7
sbsS'France'
p199
g2
(g3
g4
Ntp200
Rp201
(dp202
g8
F2856.6
sg9
F81.6
sg10
F10.4
sg11
F44508.0
sg12
g199
sg13
F0.872
sg14
F62.6
sbsS'Syrian Arab Republic'
p203
g2
(g3
g4
Ntp204
Rp205
(dp206
g8
F55.2
sg9
F74.6
sg10
F4.9
sg11
F2682.0
sg12
g203
sg13
F0.589
sg14
F22.5
sbsS'Rwanda'
p207
g2
(g3
g4
Ntp208
Rp209
(dp210
g8
F4.5
sg9
F51.1
sg10
F3.3
sg11
F458.0
sg12
g207
sg13
F0.385
sg14
F10.3
sbsS'Slovakia'
p211
g2
(g3
g4
Ntp212
Rp213
(dp214
g8
F98.5
sg9
F75.1
sg10
F11.6
sg11
F18212.0
sg12
g211
sg13
F0.818
sg14
F5.4
sbsS'Peru'
p215
g2
(g3
g4
Ntp216
Rp217
(dp218
g8
F129.1
sg9
F73.7
sg10
F9.6
sg11
F4477.0
sg12
g215
sg13
F0.723
sg14
F29.5
sbsS'Norway'
p219
g2
(g3
g4
Ntp220
Rp221
(dp222
g8
F451.8
sg9
F81.0
sg10
F12.6
sg11
F94759.0
sg12
g219
sg13
F0.938
sg14
F4.9
sbsS'Malawi'
p223
g2
(g3
g4
Ntp224
Rp225
(dp226
g8
F4.3
sg9
F54.6
sg10
F4.3
sg11
F288.0
sg12
g223
sg13
F0.385
sg14
F15.7
sbsS'Benin'
p227
g2
(g3
g4
Ntp228
Rp229
(dp230
g8
F6.7
sg9
F62.3
sg10
F3.5
sg11
F771.0
sg12
g227
sg13
F0.435
sg14
F9.2
sbsS'Singapore'
p231
g2
(g3
g4
Ntp232
Rp233
(dp234
g8
F181.9
sg9
F80.7
sg10
F8.8
sg11
F37597.0
sg12
g231
sg13
F0.846
sg14
F4.8
sbsS'Montenegro'
p235
g2
(g3
g4
Ntp236
Rp237
(dp238
g8
F4.9
sg9
F74.6
sg10
F10.6
sg11
F7859.0
sg12
g235
sg13
F0.769
sg14
F0.6
sbsS'Togo'
p239
g2
(g3
g4
Ntp240
Rp241
(dp242
g8
F2.9
sg9
F63.3
sg10
F5.3
sg11
F449.0
sg12
g239
sg13
F0.428
sg14
F6.8
sbsS'China'
p243
g2
(g3
g4
Ntp244
Rp245
(dp246
g8
F4327.0
sg9
F73.5
sg10
F7.5
sg11
F3267.0
sg12
g243
sg13
F0.663
sg14
F1354.1
sbsS'Armenia'
p247
g2
(g3
g4
Ntp248
Rp249
(dp250
g8
F11.9
sg9
F74.2
sg10
F10.8
sg11
F3873.0
sg12
g247
sg13
F0.695
sg14
F3.1
sbsS'Dominican Republic'
p251
g2
(g3
g4
Ntp252
Rp253
(dp254
g8
F45.5
sg9
F72.8
sg10
F6.9
sg11
F4576.0
sg12
g251
sg13
F0.663
sg14
F10.2
sbsS'Bolivia (Plurinational State of)'
p255
g2
(g3
g4
Ntp256
Rp257
(dp258
g8
F16.7
sg9
F66.3
sg10
F9.2
sg11
F1720.0
sg12
g255
sg13
F0.643
sg14
F10.0
sbsS'Ukraine'
p259
g2
(g3
g4
Ntp260
Rp261
(dp262
g8
F180.4
sg9
F68.6
sg10
F11.3
sg11
F3899.0
sg12
g259
sg13
F0.71
sg14
F45.4
sbsS'Ghana'
p263
g2
(g3
g4
Ntp264
Rp265
(dp266
g8
F16.7
sg9
F57.1
sg10
F7.1
sg11
F713.0
sg12
g263
sg13
F0.467
sg14
F24.3
sbsS'Tonga'
p267
g2
(g3
g4
Ntp268
Rp269
(dp270
g8
F0.3
sg9
F72.1
sg10
F10.4
sg11
F2687.0
sg12
g267
sg13
F0.677
sg14
F0.1
sbsS'Indonesia'
p271
g2
(g3
g4
Ntp272
Rp273
(dp274
g8
F510.7
sg9
F71.5
sg10
F5.7
sg11
F2246.0
sg12
g271
sg13
F0.6
sg14
F232.5
sbsS'Finland'
p275
g2
(g3
g4
Ntp276
Rp277
(dp278
g8
F272.7
sg9
F80.1
sg10
F10.3
sg11
F51323.0
sg12
g275
sg13
F0.871
sg14
F5.3
sbsS'Central African Republic'
p279
g2
(g3
g4
Ntp280
Rp281
(dp282
g8
F2.0
sg9
F47.7
sg10
F3.5
sg11
F458.0
sg12
g279
sg13
F0.315
sg14
F4.5
sbsS'Mauritius'
p283
g2
(g3
g4
Ntp284
Rp285
(dp286
g8
F9.3
sg9
F72.1
sg10
F7.2
sg11
F7345.0
sg12
g283
sg13
F0.701
sg14
F1.3
sbsS'Sweden'
p287
g2
(g3
g4
Ntp288
Rp289
(dp290
g8
F479.0
sg9
F81.3
sg10
F11.6
sg11
F51950.0
sg12
g287
sg13
F0.885
sg14
F9.3
sbsS'Belarus'
p291
g2
(g3
g4
Ntp292
Rp293
(dp294
g8
F60.3
sg9
F69.6
sg10
F9.3
sg11
F6230.0
sg12
g291
sg13
F0.732
sg14
F9.6
sbsS'Mali'
p295
g2
(g3
g4
Ntp296
Rp297
(dp298
g8
F8.7
sg9
F49.2
sg10
F1.4
sg11
F688.0
sg12
g295
sg13
F0.309
sg14
F13.3
sbsS'Bulgaria'
p299
g2
(g3
g4
Ntp300
Rp301
(dp302
g8
F49.9
sg9
F73.7
sg10
F9.9
sg11
F6546.0
sg12
g299
sg13
F0.743
sg14
F7.5
sbsS'United States'
p303
g2
(g3
g4
Ntp304
Rp305
(dp306
g8
F14591.4
sg9
F79.6
sg10
F12.4
sg11
F46350.0
sg12
g303
sg13
F0.902
sg14
F317.6
sbsS'Romania'
p307
g2
(g3
g4
Ntp308
Rp309
(dp310
g8
F200.1
sg9
F73.2
sg10
F10.6
sg11
F9300.0
sg12
g307
sg13
F0.767
sg14
F21.2
sbsS'Angola'
p311
g2
(g3
g4
Ntp312
Rp313
(dp314
g8
F84.9
sg9
F48.1
sg10
F4.4
sg11
F4714.0
sg12
g311
sg13
F0.403
sg14
F19.0
sbsS'Portugal'
p315
g2
(g3
g4
Ntp316
Rp317
(dp318
g8
F243.5
sg9
F79.1
sg10
F8.0
sg11
F22923.0
sg12
g315
sg13
F0.795
sg14
F10.7
sbsS'South Africa'
p319
g2
(g3
g4
Ntp320
Rp321
(dp322
g8
F276.4
sg9
F52.0
sg10
F8.2
sg11
F5678.0
sg12
g319
sg13
F0.597
sg14
F50.5
sbsS'Cyprus'
p323
g2
(g3
g4
Ntp324
Rp325
(dp326
g8
F24.9
sg9
F80.0
sg10
F9.9
sg11
F31410.0
sg12
g323
sg13
F0.81
sg14
F0.9
sbsS'Brunei Darussalam'
p327
g2
(g3
g4
Ntp328
Rp329
(dp330
g12
g327
sg9
F77.4
sg10
F7.5
sg13
F0.805
sg14
F0.4
sbsS'Malaysia'
p331
g2
(g3
g4
Ntp332
Rp333
(dp334
g8
F221.8
sg9
F74.7
sg10
F9.5
sg11
F8209.0
sg12
g331
sg13
F0.744
sg14
F27.9
sbsS'Austria'
p335
g2
(g3
g4
Ntp336
Rp337
(dp338
g8
F413.5
sg9
F80.4
sg10
F9.8
sg11
F49599.0
sg12
g335
sg13
F0.851
sg14
F8.4
sbsS'Mozambique'
p339
g2
(g3
g4
Ntp340
Rp341
(dp342
g8
F9.8
sg9
F48.4
sg10
F1.2
sg11
F440.0
sg12
g339
sg13
F0.284
sg14
F23.4
sbsS'Tanzania (United Republic of)'
p343
g2
(g3
g4
Ntp344
Rp345
(dp346
g8
F20.5
sg9
F56.9
sg10
F5.1
sg11
F496.0
sg12
g343
sg13
F0.398
sg14
F45.0
sbsS'Uganda'
p347
g2
(g3
g4
Ntp348
Rp349
(dp350
g8
F14.3
sg9
F54.1
sg10
F4.7
sg11
F453.0
sg12
g347
sg13
F0.422
sg14
F33.8
sbsS'Hungary'
p351
g2
(g3
g4
Ntp352
Rp353
(dp354
g8
F154.7
sg9
F73.9
sg10
F11.7
sg11
F15408.0
sg12
g351
sg13
F0.805
sg14
F10.0
sbsS'Niger'
p355
g2
(g3
g4
Ntp356
Rp357
(dp358
g8
F5.4
sg9
F52.5
sg10
F1.4
sg11
F364.0
sg12
g355
sg13
F0.261
sg14
F15.9
sbsS'Brazil'
p359
g2
(g3
g4
Ntp360
Rp361
(dp362
g8
F1575.2
sg9
F72.9
sg10
F7.2
sg11
F8205.0
sg12
g359
sg13
F0.699
sg14
F195.4
sbsS'Kuwait'
p363
g2
(g3
g4
Ntp364
Rp365
(dp366
g8
F148.0
sg9
F77.9
sg10
F6.1
sg11
F54260.0
sg12
g363
sg13
F0.771
sg14
F3.1
sbsS'Panama'
p367
g2
(g3
g4
Ntp368
Rp369
(dp370
g8
F23.1
sg9
F76.0
sg10
F9.4
sg11
F6793.0
sg12
g367
sg13
F0.755
sg14
F3.5
sbsS'Guyana'
p371
g2
(g3
g4
Ntp372
Rp373
(dp374
g8
F1.2
sg9
F67.9
sg10
F8.5
sg11
F1513.0
sg12
g371
sg13
F0.611
sg14
F0.8
sbsS'Costa Rica'
p375
g2
(g3
g4
Ntp376
Rp377
(dp378
g8
F29.7
sg9
F79.1
sg10
F8.3
sg11
F6564.0
sg12
g375
sg13
F0.725
sg14
F4.6
sbsS'Luxembourg'
p379
g2
(g3
g4
Ntp380
Rp381
(dp382
g8
F53.7
sg9
F79.9
sg10
F10.1
sg11
F109903.0
sg12
g379
sg13
F0.852
sg14
F0.5
sbsS'Andorra'
p383
g2
(g3
g4
Ntp384
Rp385
(dp386
g12
g383
sg9
F80.8
sg10
F10.4
sg13
F0.824
sg14
F0.1
sbsS'Ireland'
p387
g2
(g3
g4
Ntp388
Rp389
(dp390
g8
F267.6
sg9
F80.3
sg10
F11.6
sg11
F60460.0
sg12
g387
sg13
F0.895
sg14
F4.6
sbsS'Nigeria'
p391
g2
(g3
g4
Ntp392
Rp393
(dp394
g8
F207.1
sg9
F48.4
sg10
F5.0
sg11
F1370.0
sg12
g391
sg13
F0.423
sg14
F158.3
sbsS'Ecuador'
p395
g2
(g3
g4
Ntp396
Rp397
(dp398
g8
F54.7
sg9
F75.4
sg10
F7.6
sg11
F4056.0
sg12
g395
sg13
F0.695
sg14
F13.8
sbsS'Bangladesh'
p399
g2
(g3
g4
Ntp400
Rp401
(dp402
g8
F79.6
sg9
F66.9
sg10
F4.8
sg11
F497.0
sg12
g399
sg13
F0.469
sg14
F164.4
sbsS'Australia'
p403
g2
(g3
g4
Ntp404
Rp405
(dp406
g8
F1015.2
sg9
F81.9
sg10
F12.0
sg11
F47370.0
sg12
g403
sg13
F0.937
sg14
F21.5
sbsS'Algeria'
p407
g2
(g3
g4
Ntp408
Rp409
(dp410
g8
F166.5
sg9
F72.9
sg10
F7.2
sg11
F4845.0
sg12
g407
sg13
F0.677
sg14
F35.4
sbsS'El Salvador'
p411
g2
(g3
g4
Ntp412
Rp413
(dp414
g8
F22.1
sg9
F72.0
sg10
F7.7
sg11
F3605.0
sg12
g411
sg13
F0.659
sg14
F6.2
sbsS'Solomon Islands'
p415
g2
(g3
g4
Ntp416
Rp417
(dp418
g8
F0.6
sg9
F67.0
sg10
F4.5
sg11
F1263.0
sg12
g415
sg13
F0.494
sg14
F0.5
sbsS'Chile'
p419
g2
(g3
g4
Ntp420
Rp421
(dp422
g8
F169.5
sg9
F78.8
sg10
F9.7
sg11
F10084.0
sg12
g419
sg13
F0.783
sg14
F17.1
sbsS'Belgium'
p423
g2
(g3
g4
Ntp424
Rp425
(dp426
g8
F504.2
sg9
F80.3
sg10
F10.6
sg11
F47085.0
sg12
g423
sg13
F0.867
sg14
F10.7
sbsS'Thailand'
p427
g2
(g3
g4
Ntp428
Rp429
(dp430
g8
F272.4
sg9
F69.3
sg10
F6.6
sg11
F4043.0
sg12
g427
sg13
F0.654
sg14
F68.1
sbsS'Haiti'
p431
g2
(g3
g4
Ntp432
Rp433
(dp434
g8
F7.2
sg9
F61.7
sg10
F4.9
sg11
F729.0
sg12
g431
sg13
F0.404
sg14
F10.2
sbsS'Belize'
p435
g2
(g3
g4
Ntp436
Rp437
(dp438
g8
F1.4
sg9
F76.9
sg10
F9.2
sg11
F4218.0
sg12
g435
sg13
F0.694
sg14
F0.3
sbsS'Korea (Republic of)'
p439
g2
(g3
g4
Ntp440
Rp441
(dp442
g8
F929.1
sg9
F79.8
sg10
F11.6
sg11
F19115.0
sg12
g439
sg13
F0.877
sg14
F48.5
sbsS'Georgia'
p443
g2
(g3
g4
Ntp444
Rp445
(dp446
g8
F12.8
sg9
F72.0
sg10
F12.1
sg11
F2970.0
sg12
g443
sg13
F0.698
sg14
F4.2
sbsS"Lao People's Democratic Republic"
p447
g2
(g3
g4
Ntp448
Rp449
(dp450
g8
F5.5
sg9
F65.9
sg10
F4.6
sg11
F893.0
sg12
g447
sg13
F0.497
sg14
F6.4
sbsS'Denmark'
p451
g2
(g3
g4
Ntp452
Rp453
(dp454
g8
F341.3
sg9
F78.7
sg10
F10.3
sg11
F62118.0
sg12
g451
sg13
F0.866
sg14
F5.5
sbsS'Poland'
p455
g2
(g3
g4
Ntp456
Rp457
(dp458
g8
F527.9
sg9
F76.0
sg10
F10.0
sg11
F13845.0
sg12
g455
sg13
F0.795
sg14
F38.0
sbsS'Morocco'
p459
g2
(g3
g4
Ntp460
Rp461
(dp462
g8
F88.9
sg9
F71.8
sg10
F4.4
sg11
F2769.0
sg12
g459
sg13
F0.567
sg14
F32.4
sbsS'Croatia'
p463
g2
(g3
g4
Ntp464
Rp465
(dp466
g8
F69.3
sg9
F76.7
sg10
F9.0
sg11
F15637.0
sg12
g463
sg13
F0.767
sg14
F4.4
sbsS'Guinea-Bissau'
p467
g2
(g3
g4
Ntp468
Rp469
(dp470
g8
F0.4
sg9
F48.6
sg10
F2.3
sg11
F273.0
sg12
g467
sg13
F0.289
sg14
F1.6
sbsS'Switzerland'
p471
g2
(g3
g4
Ntp472
Rp473
(dp474
g8
F491.9
sg9
F82.2
sg10
F10.3
sg11
F64327.0
sg12
g471
sg13
F0.874
sg14
F7.6
sbsS'Venezuela (Bolivarian Republic of)'
p475
g2
(g3
g4
Ntp476
Rp477
(dp478
g8
F314.2
sg9
F74.2
sg10
F6.2
sg11
F11246.0
sg12
g475
sg13
F0.696
sg14
F29.0
sbsS'Chad'
p479
g2
(g3
g4
Ntp480
Rp481
(dp482
g8
F8.4
sg9
F49.2
sg10
F1.5
sg11
F770.0
sg12
g479
sg13
F0.295
sg14
F11.5
sbsS'Estonia'
p483
g2
(g3
g4
Ntp484
Rp485
(dp486
g8
F23.4
sg9
F73.7
sg10
F12.0
sg11
F17454.0
sg12
g483
sg13
F0.812
sg14
F1.3
sbsS'Uruguay'
p487
g2
(g3
g4
Ntp488
Rp489
(dp490
g8
F32.2
sg9
F76.7
sg10
F8.4
sg11
F9654.0
sg12
g487
sg13
F0.765
sg14
F3.4
sbsS'Equatorial Guinea'
p491
g2
(g3
g4
Ntp492
Rp493
(dp494
g8
F18.5
sg9
F51.0
sg10
F5.4
sg11
F28103.0
sg12
g491
sg13
F0.538
sg14
F0.7
sbsS'Sierra Leone'
p495
g2
(g3
g4
Ntp496
Rp497
(dp498
g8
F2.0
sg9
F48.2
sg10
F2.9
sg11
F352.0
sg12
g495
sg13
F0.317
sg14
F5.8
sbsS'Uzbekistan'
p499
g2
(g3
g4
Ntp500
Rp501
(dp502
g8
F27.9
sg9
F68.2
sg10
F10.0
sg11
F1023.0
sg12
g499
sg13
F0.617
sg14
F27.8
sbsS'Tunisia'
p503
g2
(g3
g4
Ntp504
Rp505
(dp506
g8
F40.3
sg9
F74.3
sg10
F6.5
sg11
F3903.0
sg12
g503
sg13
F0.683
sg14
F10.4
sbsS'Djibouti'
p507
g2
(g3
g4
Ntp508
Rp509
(dp510
g8
F0.9
sg9
F56.1
sg10
F3.8
sg11
F1030.0
sg12
g507
sg13
F0.402
sg14
F0.9
sbsS'Timor-Leste'
p511
g2
(g3
g4
Ntp512
Rp513
(dp514
g8
F0.5
sg9
F62.1
sg10
F2.8
sg11
F453.0
sg12
g511
sg13
F0.502
sg14
F1.2
sbsS'Colombia'
p515
g2
(g3
g4
Ntp516
Rp517
(dp518
g8
F243.8
sg9
F73.4
sg10
F7.4
sg11
F5416.0
sg12
g515
sg13
F0.689
sg14
F46.3
sbsS'Burundi'
p519
g2
(g3
g4
Ntp520
Rp521
(dp522
g8
F1.2
sg9
F51.4
sg10
F2.7
sg11
F144.0
sg12
g519
sg13
F0.282
sg14
F8.5
sbsS'Fiji'
p523
g2
(g3
g4
Ntp524
Rp525
(dp526
g8
F3.6
sg9
F69.2
sg10
F11.0
sg11
F4253.0
sg12
g523
sg13
F0.669
sg14
F0.9
sbsS'Barbados'
p527
g2
(g3
g4
Ntp528
Rp529
(dp530
g8
F3.7
sg9
F77.7
sg10
F9.3
sg11
F14426.0
sg12
g527
sg13
F0.788
sg14
F0.3
sbsS'Qatar'
p531
g2
(g3
g4
Ntp532
Rp533
(dp534
g12
g531
sg9
F76.0
sg10
F7.3
sg13
F0.803
sg14
F1.5
sbsS'Italy'
p535
g2
(g3
g4
Ntp536
Rp537
(dp538
g8
F2303.1
sg9
F81.4
sg10
F9.7
sg11
F38492.0
sg12
g535
sg13
F0.854
sg14
F60.1
sbsS'Sudan'
p539
g2
(g3
g4
Ntp540
Rp541
(dp542
g8
F55.9
sg9
F58.9
sg10
F2.9
sg11
F1353.0
sg12
g539
sg13
F0.379
sg14
F43.2
sbsS'Congo (Democratic Republic of the)'
p543
g2
(g3
g4
Ntp544
Rp545
(dp546
g8
F11.7
sg9
F48.0
sg10
F3.8
sg11
F182.0
sg12
g543
sg13
F0.239
sg14
F67.8
sbsS'Nepal'
p547
g2
(g3
g4
Ntp548
Rp549
(dp550
g8
F12.6
sg9
F67.5
sg10
F3.2
sg11
F438.0
sg12
g547
sg13
F0.428
sg14
F29.9
sbsS'Malta'
p551
g2
(g3
g4
Ntp552
Rp553
(dp554
g12
g551
sg9
F80.0
sg10
F9.9
sg13
F0.815
sg14
F0.4
sbsS'Maldives'
p555
g2
(g3
g4
Ntp556
Rp557
(dp558
g8
F1.3
sg9
F72.3
sg10
F4.7
sg11
F4135.0
sg12
g555
sg13
F0.602
sg14
F0.3
sbsS'Suriname'
p559
g2
(g3
g4
Ntp560
Rp561
(dp562
g8
F3.0
sg9
F69.4
sg10
F7.2
sg11
F5888.0
sg12
g559
sg13
F0.646
sg14
F0.5
sbsS'Micronesia (Federated States of)'
p563
g2
(g3
g4
Ntp564
Rp565
(dp566
g8
F0.3
sg9
F69.0
sg10
F8.8
sg11
F2334.0
sg12
g563
sg13
F0.614
sg14
F0.1
sbsS'The former Yugoslav Republic of Macedonia'
p567
g2
(g3
g4
Ntp568
Rp569
(dp570
g8
F9.5
sg9
F74.5
sg10
F8.2
sg11
F4664.0
sg12
g567
sg13
F0.701
sg14
F2.0
sbsS'Israel'
p571
g2
(g3
g4
Ntp572
Rp573
(dp574
g8
F202.1
sg9
F81.2
sg10
F11.9
sg11
F27652.0
sg12
g571
sg13
F0.872
sg14
F7.3
sbsS'Iceland'
p575
g2
(g3
g4
Ntp576
Rp577
(dp578
g8
F16.7
sg9
F82.1
sg10
F10.4
sg11
F52479.0
sg12
g575
sg13
F0.869
sg14
F0.3
sbsS'Zambia'
p579
g2
(g3
g4
Ntp580
Rp581
(dp582
g8
F14.3
sg9
F47.3
sg10
F6.5
sg11
F1134.0
sg12
g579
sg13
F0.395
sg14
F13.3
sbsS'Senegal'
p583
g2
(g3
g4
Ntp584
Rp585
(dp586
g8
F13.3
sg9
F56.2
sg10
F3.5
sg11
F1087.0
sg12
g583
sg13
F0.411
sg14
F12.9
sbsS'Papua New Guinea'
p587
g2
(g3
g4
Ntp588
Rp589
(dp590
g8
F8.2
sg9
F61.6
sg10
F4.3
sg11
F1253.0
sg12
g587
sg13
F0.431
sg14
F6.9
sbsS'Zimbabwe'
p591
g2
(g3
g4
Ntp592
Rp593
(dp594
g12
g591
sg9
F47.0
sg10
F7.2
sg13
F0.14
sg14
F12.6
sbsS'Germany'
p595
g2
(g3
g4
Ntp596
Rp597
(dp598
g8
F3649.5
sg9
F80.2
sg10
F12.2
sg11
F44446.0
sg12
g595
sg13
F0.885
sg14
F82.1
sbsS'Gambia'
p599
g2
(g3
g4
Ntp600
Rp601
(dp602
g8
F0.8
sg9
F56.6
sg10
F2.8
sg11
F489.0
sg12
g599
sg13
F0.39
sg14
F1.8
sbsS'Kazakhstan'
p603
g2
(g3
g4
Ntp604
Rp605
(dp606
g8
F133.4
sg9
F65.4
sg10
F10.3
sg11
F8513.0
sg12
g603
sg13
F0.714
sg14
F15.8
sbsS'Philippines'
p607
g2
(g3
g4
Ntp608
Rp609
(dp610
g8
F166.9
sg9
F72.3
sg10
F8.7
sg11
F1847.0
sg12
g607
sg13
F0.638
sg14
F93.6
sbsS'Mauritania'
p611
g2
(g3
g4
Ntp612
Rp613
(dp614
g8
F2.9
sg9
F57.3
sg10
F3.7
sg11
F889.0
sg12
g611
sg13
F0.433
sg14
F3.4
sbsS'Kyrgyzstan'
p615
g2
(g3
g4
Ntp616
Rp617
(dp618
g8
F5.1
sg9
F68.4
sg10
F9.3
sg11
F958.0
sg12
g615
sg13
F0.598
sg14
F5.6
sbsS'Trinidad and Tobago'
p619
g2
(g3
g4
Ntp620
Rp621
(dp622
g8
F24.1
sg9
F69.9
sg10
F9.2
sg11
F18108.0
sg12
g619
sg13
F0.736
sg14
F1.3
sbsS'Latvia'
p623
g2
(g3
g4
Ntp624
Rp625
(dp626
g8
F33.8
sg9
F73.0
sg10
F10.4
sg11
F14908.0
sg12
g623
sg13
F0.769
sg14
F2.2
sbsS'Egypt'
p627
g2
(g3
g4
Ntp628
Rp629
(dp630
g8
F162.3
sg9
F70.5
sg10
F6.5
sg11
F1991.0
sg12
g627
sg13
F0.62
sg14
F84.5
sbsS'Japan'
p631
g2
(g3
g4
Ntp632
Rp633
(dp634
g8
F4910.8
sg9
F83.2
sg10
F11.5
sg11
F38455.0
sg12
g631
sg13
F0.884
sg14
F127.0
sbsS'Honduras'
p635
g2
(g3
g4
Ntp636
Rp637
(dp638
g8
F13.3
sg9
F72.6
sg10
F6.5
sg11
F1823.0
sg12
g635
sg13
F0.604
sg14
F7.6
sbsS'Myanmar'
p639
g2
(g3
g4
Ntp640
Rp641
(dp642
g12
g639
sg9
F62.7
sg10
F4.0
sg13
F0.451
sg14
F50.5
sbsS'Mexico'
p643
g2
(g3
g4
Ntp644
Rp645
(dp646
g8
F1088.1
sg9
F76.7
sg10
F8.7
sg11
F10232.0
sg12
g643
sg13
F0.75
sg14
F110.6
sbsS'Liechtenstein'
p647
g2
(g3
g4
Ntp648
Rp649
(dp650
g12
g647
sg9
F79.6
sg10
F10.3
sg13
F0.891
sg14
F0.0
sbsS'Nicaragua'
p651
g2
(g3
g4
Ntp652
Rp653
(dp654
g8
F6.6
sg9
F73.8
sg10
F5.7
sg11
F1163.0
sg12
g651
sg13
F0.565
sg14
F5.8
sbsS'Serbia'
p655
g2
(g3
g4
Ntp656
Rp657
(dp658
g8
F50.1
sg9
F74.4
sg10
F9.5
sg11
F6811.0
sg12
g655
sg13
F0.735
sg14
F9.9
sbsS'Comoros'
p659
g2
(g3
g4
Ntp660
Rp661
(dp662
g8
F0.5
sg9
F66.2
sg10
F2.8
sg11
F824.0
sg12
g659
sg13
F0.428
sg14
F0.7
sbsS'United Kingdom'
p663
g2
(g3
g4
Ntp664
Rp665
(dp666
g8
F2674.1
sg9
F79.8
sg10
F9.5
sg11
F43541.0
sg12
g663
sg13
F0.849
sg14
F61.9
sbsS'Congo'
p667
g2
(g3
g4
Ntp668
Rp669
(dp670
g8
F10.7
sg9
F53.9
sg10
F5.9
sg11
F2966.0
sg12
g667
sg13
F0.489
sg14
F3.8
sbsS'Greece'
p671
g2
(g3
g4
Ntp672
Rp673
(dp674
g8
F355.9
sg9
F79.7
sg10
F10.5
sg11
F31670.0
sg12
g671
sg13
F0.855
sg14
F11.2
sbsS'Sri Lanka'
p675
g2
(g3
g4
Ntp676
Rp677
(dp678
g8
F40.6
sg9
F74.4
sg10
F8.2
sg11
F2013.0
sg12
g675
sg13
F0.658
sg14
F20.4
sbsS'Namibia'
p679
g2
(g3
g4
Ntp680
Rp681
(dp682
g8
F8.8
sg9
F62.1
sg10
F7.4
sg11
F4149.0
sg12
g679
sg13
F0.606
sg14
F2.2
sbsS'Botswana'
p683
g2
(g3
g4
Ntp684
Rp685
(dp686
g8
F13.4
sg9
F55.5
sg10
F8.9
sg11
F6982.0
sg12
g683
sg13
F0.633
sg14
F2.0
sbs.